; Function Attrs: mustprogress nofree norecurse nosync nounwind willreturn memory(argmem: read) uwtable
define noundef zeroext i1 @_ZN5arrowgeERKNS_15BasicDecimal128ES2_(ptr noundef nonnull readonly align 8 captures(none) dereferenceable(16) %0, ptr noundef nonnull readonly align 8 captures(none) dereferenceable(16) %1) local_unnamed_addr #7 {
  %3 = getelementptr inbounds nuw i8, ptr %0, i64 8
  %4 = load i64, ptr %3, align 8, !tbaa !7
  %5 = getelementptr inbounds nuw i8, ptr %1, i64 8
  %6 = load i64, ptr %5, align 8, !tbaa !7
  %7 = icmp slt i64 %4, %6
  br i1 %7, label %_ZN5arrowltERKNS_15BasicDecimal128ES2_.exit, label %8

8:                                                ; preds = %2
  %9 = icmp eq i64 %4, %6
  br i1 %9, label %10, label %_ZN5arrowltERKNS_15BasicDecimal128ES2_.exit

10:                                               ; preds = %8
  %11 = load i64, ptr %0, align 8, !tbaa !7
  %12 = load i64, ptr %1, align 8, !tbaa !7
  %13 = icmp uge i64 %11, %12
  br label %_ZN5arrowltERKNS_15BasicDecimal128ES2_.exit

_ZN5arrowltERKNS_15BasicDecimal128ES2_.exit:      ; preds = %2, %8, %10
  %14 = phi i1 [ false, %2 ], [ true, %8 ], [ %13, %10 ]
  ret i1 %14
}